target datalayout = "e-m:e-p270:32:32-p271:32:32-p272:64:64-i64:64-i128:128-f80:128-n8:16:32:64-S128"
target triple = "x86_64-pc-linux-gnu"

%struct.marshal_compat_t = type { i64, i64, ptr, ptr }
%struct.load_arg = type { i64, ptr, i64, i64, i64, ptr, ptr, ptr, i64, ptr, i8 }

@compat_allocator_tbl = internal global ptr null, align 8

; Function Attrs: nounwind sspstrong uwtable
define internal i64 @obj_alloc_by_klass(i64 noundef %0, ptr noundef %1, ptr noundef %2) #0 {
  %4 = alloca i64, align 8
  %5 = alloca i64, align 8
  %6 = alloca ptr, align 8
  %7 = alloca ptr, align 8
  %8 = alloca i64, align 8
  %9 = alloca ptr, align 8
  %10 = alloca ptr, align 8
  %11 = alloca i64, align 8
  %12 = alloca i64, align 8
  %13 = alloca i32, align 4
  store i64 %0, ptr %5, align 8, !tbaa !7
  store ptr %1, ptr %6, align 8, !tbaa !33
  store ptr %2, ptr %7, align 8, !tbaa !18
  call void @llvm.lifetime.start.p0(i64 8, ptr %8) #23
  call void @llvm.lifetime.start.p0(i64 8, ptr %9) #23
  %14 = load i64, ptr %5, align 8, !tbaa !7
  %15 = call ptr @rb_get_alloc_func(i64 noundef %14)
  store ptr %15, ptr %9, align 8, !tbaa !11
  %16 = load ptr, ptr @compat_allocator_tbl, align 8, !tbaa !16
  %17 = load ptr, ptr %9, align 8, !tbaa !11
  %18 = ptrtoint ptr %17 to i64
  %19 = call i32 @rb_st_lookup(ptr noundef %16, i64 noundef %18, ptr noundef %8)
  %20 = icmp ne i32 %19, 0
  br i1 %20, label %21, label %54

21:                                               ; preds = %3
  call void @llvm.lifetime.start.p0(i64 8, ptr %10) #23
  %22 = load i64, ptr %8, align 8, !tbaa !7
  %23 = inttoptr i64 %22 to ptr
  store ptr %23, ptr %10, align 8, !tbaa !11
  call void @llvm.lifetime.start.p0(i64 8, ptr %11) #23
  %24 = load i64, ptr %5, align 8, !tbaa !7
  %25 = call i64 @rb_obj_alloc(i64 noundef %24)
  store i64 %25, ptr %11, align 8, !tbaa !7
  call void @llvm.lifetime.start.p0(i64 8, ptr %12) #23
  %26 = load ptr, ptr %10, align 8, !tbaa !11
  %27 = getelementptr inbounds nuw %struct.marshal_compat_t, ptr %26, i32 0, i32 1
  %28 = load i64, ptr %27, align 8, !tbaa !74
  %29 = call i64 @rb_obj_alloc(i64 noundef %28)
  store i64 %29, ptr %12, align 8, !tbaa !7
  %30 = load ptr, ptr %7, align 8, !tbaa !18
  %31 = icmp ne ptr %30, null
  br i1 %31, label %32, label %37

32:                                               ; preds = %21
  %33 = load ptr, ptr %10, align 8, !tbaa !11
  %34 = getelementptr inbounds nuw %struct.marshal_compat_t, ptr %33, i32 0, i32 1
  %35 = load i64, ptr %34, align 8, !tbaa !74
  %36 = load ptr, ptr %7, align 8, !tbaa !18
  store i64 %35, ptr %36, align 8, !tbaa !7
  br label %37

37:                                               ; preds = %32, %21
  %38 = load ptr, ptr %6, align 8, !tbaa !33
  %39 = getelementptr inbounds nuw %struct.load_arg, ptr %38, i32 0, i32 9
  %40 = load ptr, ptr %39, align 8, !tbaa !54
  %41 = icmp ne ptr %40, null
  br i1 %41, label %46, label %42

42:                                               ; preds = %37
  %43 = call ptr @rb_init_identtable()
  %44 = load ptr, ptr %6, align 8, !tbaa !33
  %45 = getelementptr inbounds nuw %struct.load_arg, ptr %44, i32 0, i32 9
  store ptr %43, ptr %45, align 8, !tbaa !54
  br label %46

46:                                               ; preds = %42, %37
  %47 = load ptr, ptr %6, align 8, !tbaa !33
  %48 = getelementptr inbounds nuw %struct.load_arg, ptr %47, i32 0, i32 9
  %49 = load ptr, ptr %48, align 8, !tbaa !54
  %50 = load i64, ptr %12, align 8, !tbaa !7
  %51 = load i64, ptr %11, align 8, !tbaa !7
  %52 = call i32 @rb_st_insert(ptr noundef %49, i64 noundef %50, i64 noundef %51)
  %53 = load i64, ptr %12, align 8, !tbaa !7
  store i64 %53, ptr %4, align 8
  store i32 1, ptr %13, align 4
  call void @llvm.lifetime.end.p0(i64 8, ptr %12) #23
  call void @llvm.lifetime.end.p0(i64 8, ptr %11) #23
  call void @llvm.lifetime.end.p0(i64 8, ptr %10) #23
  br label %57

54:                                               ; preds = %3
  %55 = load i64, ptr %5, align 8, !tbaa !7
  %56 = call i64 @rb_obj_alloc(i64 noundef %55)
  store i64 %56, ptr %4, align 8
  store i32 1, ptr %13, align 4
  br label %57

57:                                               ; preds = %54, %46
  call void @llvm.lifetime.end.p0(i64 8, ptr %9) #23
  call void @llvm.lifetime.end.p0(i64 8, ptr %8) #23
  %58 = load i64, ptr %4, align 8
  ret i64 %58
}