; Function Attrs: nounwind sspstrong uwtable
define internal fastcc i64 @obj_alloc_by_klass(i64 noundef %0, ptr noundef captures(none) %1, ptr noundef writeonly captures(address_is_null) %2) unnamed_addr #0 {
  %4 = alloca i64, align 8
  call void @llvm.lifetime.start.p0(i64 8, ptr nonnull %4) #22
  %5 = tail call ptr @rb_get_alloc_func(i64 noundef %0) #22
  %6 = load ptr, ptr @compat_allocator_tbl, align 8, !tbaa !11
  %7 = ptrtoint ptr %5 to i64
  %8 = call i32 @rb_st_lookup(ptr noundef %6, i64 noundef %7, ptr noundef nonnull %4) #22
  %.not = icmp eq i32 %8, 0
  br i1 %.not, label %26, label %9

9:                                                ; preds = %3
  %10 = load i64, ptr %4, align 8, !tbaa !7
  %11 = inttoptr i64 %10 to ptr
  %12 = call i64 @rb_obj_alloc(i64 noundef %0) #22
  %13 = getelementptr inbounds nuw i8, ptr %11, i64 8
  %14 = load i64, ptr %13, align 8, !tbaa !62
  %15 = call i64 @rb_obj_alloc(i64 noundef %14) #22
  %.not15 = icmp eq ptr %2, null
  br i1 %.not15, label %18, label %16

16:                                               ; preds = %9
  %17 = load i64, ptr %13, align 8, !tbaa !62
  store i64 %17, ptr %2, align 8, !tbaa !7
  br label %18

18:                                               ; preds = %16, %9
  %19 = getelementptr inbounds nuw i8, ptr %1, i64 72
  %20 = load ptr, ptr %19, align 8, !tbaa !54
  %.not16 = icmp eq ptr %20, null
  br i1 %.not16, label %21, label %23

21:                                               ; preds = %18
  %22 = call ptr @rb_init_identtable() #22
  store ptr %22, ptr %19, align 8, !tbaa !54
  br label %23

23:                                               ; preds = %21, %18
  %24 = phi ptr [ %22, %21 ], [ %20, %18 ]
  %25 = call i32 @rb_st_insert(ptr noundef %24, i64 noundef %15, i64 noundef %12) #22
  br label %28

26:                                               ; preds = %3
  %27 = call i64 @rb_obj_alloc(i64 noundef %0) #22
  br label %28

28:                                               ; preds = %26, %23
  %.0 = phi i64 [ %15, %23 ], [ %27, %26 ]
  call void @llvm.lifetime.end.p0(i64 8, ptr nonnull %4) #22
  ret i64 %.0
}